target datalayout = "e-m:e-p270:32:32-p271:32:32-p272:64:64-i64:64-i128:128-f80:128-n8:16:32:64-S128"
target triple = "x86_64-unknown-linux-gnu"

%class.mpz = type { i32, i8, ptr }
%class.mpf_manager = type { %class.mpq_manager, ptr, %"class.mpf_manager::powers2" }
%class.mpq_manager = type { %class.mpz_manager, %class.mpz, %class.mpz, %class.mpz, %class.mpz, %class.mpq, %class.mpq }
%class.mpz_manager = type { %class.small_object_allocator, %"class.std::recursive_mutex", %class.mpn_manager, i32, %class.mpz, %class.mpz }
%class.small_object_allocator = type { [32 x ptr], [32 x ptr], i64 }
%"class.std::recursive_mutex" = type { %"class.std::__recursive_mutex_base" }
%"class.std::__recursive_mutex_base" = type { %union.pthread_mutex_t }
%union.pthread_mutex_t = type { %struct.__pthread_mutex_s }
%struct.__pthread_mutex_s = type { i32, i32, i32, i32, i32, i16, i16, %struct.__pthread_internal_list }
%struct.__pthread_internal_list = type { ptr, ptr }
%class.mpn_manager = type { i8 }
%class.mpq = type { %class.mpz, %class.mpz }
%"class.mpf_manager::powers2" = type { ptr, %class.u_map, %class.u_map, %class.u_map, %class.u_map }
%class.u_map = type { %class.map }
%class.map = type { %class.table2map }
%class.table2map = type { %class.core_hashtable }
%class.core_hashtable = type <{ ptr, i32, i32, i32, [4 x i8] }>

; Function Attrs: mustprogress nounwind uwtable
define linkonce_odr hidden void @_ZN3mpzC2Ei(ptr noundef nonnull align 8 dereferenceable(16) %this, i32 noundef %v) unnamed_addr #5 comdat align 2 {
entry:
  %this.addr = alloca ptr, align 8
  %v.addr = alloca i32, align 4
  store ptr %this, ptr %this.addr, align 8
  store i32 %v, ptr %v.addr, align 4
  %this1 = load ptr, ptr %this.addr, align 8
  %m_val = getelementptr inbounds %class.mpz, ptr %this1, i32 0, i32 0
  %0 = load i32, ptr %v.addr, align 4
  store i32 %0, ptr %m_val, align 8
  %m_kind = getelementptr inbounds %class.mpz, ptr %this1, i32 0, i32 1
  %bf.load = load i8, ptr %m_kind, align 4
  %bf.clear = and i8 %bf.load, -2
  %bf.set = or i8 %bf.clear, 0
  store i8 %bf.set, ptr %m_kind, align 4
  %m_owner = getelementptr inbounds %class.mpz, ptr %this1, i32 0, i32 1
  %bf.load2 = load i8, ptr %m_owner, align 4
  %bf.clear3 = and i8 %bf.load2, -3
  %bf.set4 = or i8 %bf.clear3, 0
  store i8 %bf.set4, ptr %m_owner, align 4
  %m_ptr = getelementptr inbounds %class.mpz, ptr %this1, i32 0, i32 2
  store ptr null, ptr %m_ptr, align 8
  ret void
}

; Function Attrs: mustprogress uwtable
define linkonce_odr hidden void @_ZN3mpqC2Ev(ptr noundef nonnull align 8 dereferenceable(32) %this) unnamed_addr #4 comdat align 2 {
entry:
  %this.addr = alloca ptr, align 8
  store ptr %this, ptr %this.addr, align 8
  %this1 = load ptr, ptr %this.addr, align 8
  %m_num = getelementptr inbounds %class.mpq, ptr %this1, i32 0, i32 0
  call void @_ZN3mpzC2Ev(ptr noundef nonnull align 8 dereferenceable(16) %m_num)
  %m_den = getelementptr inbounds %class.mpq, ptr %this1, i32 0, i32 1
  call void @_ZN3mpzC2Ei(ptr noundef nonnull align 8 dereferenceable(16) %m_den, i32 noundef 1)
  ret void
}

; Function Attrs: mustprogress nounwind uwtable
define linkonce_odr hidden void @_ZN3mpzC2Ev(ptr noundef nonnull align 8 dereferenceable(16) %this) unnamed_addr #5 comdat align 2 {
entry:
  %this.addr = alloca ptr, align 8
  store ptr %this, ptr %this.addr, align 8
  %this1 = load ptr, ptr %this.addr, align 8
  %m_val = getelementptr inbounds %class.mpz, ptr %this1, i32 0, i32 0
  store i32 0, ptr %m_val, align 8
  %m_kind = getelementptr inbounds %class.mpz, ptr %this1, i32 0, i32 1
  %bf.load = load i8, ptr %m_kind, align 4
  %bf.clear = and i8 %bf.load, -2
  %bf.set = or i8 %bf.clear, 0
  store i8 %bf.set, ptr %m_kind, align 4
  %m_owner = getelementptr inbounds %class.mpz, ptr %this1, i32 0, i32 1
  %bf.load2 = load i8, ptr %m_owner, align 4
  %bf.clear3 = and i8 %bf.load2, -3
  %bf.set4 = or i8 %bf.clear3, 0
  store i8 %bf.set4, ptr %m_owner, align 4
  %m_ptr = getelementptr inbounds %class.mpz, ptr %this1, i32 0, i32 2
  store ptr null, ptr %m_ptr, align 8
  ret void
}

; Function Attrs: mustprogress uwtable
define linkonce_odr hidden void @_ZN11mpq_managerILb0EEC2Ev(ptr noundef nonnull align 8 dereferenceable(728) %this) unnamed_addr #4 comdat align 2 personality ptr @__gxx_personality_v0 {
entry:
  %this.addr = alloca ptr, align 8
  %exn.slot = alloca ptr, align 8
  %ehselector.slot = alloca i32, align 4
  store ptr %this, ptr %this.addr, align 8
  %this1 = load ptr, ptr %this.addr, align 8
  call void @_ZN11mpz_managerILb0EEC2Ev(ptr noundef nonnull align 8 dereferenceable(600) %this1)
  %m_tmp1 = getelementptr inbounds %class.mpq_manager, ptr %this1, i32 0, i32 1
  invoke void @_ZN3mpzC2Ev(ptr noundef nonnull align 8 dereferenceable(16) %m_tmp1)
          to label %invoke.cont unwind label %lpad

invoke.cont:                                      ; preds = %entry
  %m_tmp2 = getelementptr inbounds %class.mpq_manager, ptr %this1, i32 0, i32 2
  invoke void @_ZN3mpzC2Ev(ptr noundef nonnull align 8 dereferenceable(16) %m_tmp2)
          to label %invoke.cont2 unwind label %lpad

invoke.cont2:                                     ; preds = %invoke.cont
  %m_tmp3 = getelementptr inbounds %class.mpq_manager, ptr %this1, i32 0, i32 3
  invoke void @_ZN3mpzC2Ev(ptr noundef nonnull align 8 dereferenceable(16) %m_tmp3)
          to label %invoke.cont3 unwind label %lpad

invoke.cont3:                                     ; preds = %invoke.cont2
  %m_tmp4 = getelementptr inbounds %class.mpq_manager, ptr %this1, i32 0, i32 4
  invoke void @_ZN3mpzC2Ev(ptr noundef nonnull align 8 dereferenceable(16) %m_tmp4)
          to label %invoke.cont4 unwind label %lpad

invoke.cont4:                                     ; preds = %invoke.cont3
  %m_q_tmp1 = getelementptr inbounds %class.mpq_manager, ptr %this1, i32 0, i32 5
  invoke void @_ZN3mpqC2Ev(ptr noundef nonnull align 8 dereferenceable(32) %m_q_tmp1)
          to label %invoke.cont5 unwind label %lpad

invoke.cont5:                                     ; preds = %invoke.cont4
  %m_q_tmp2 = getelementptr inbounds %class.mpq_manager, ptr %this1, i32 0, i32 6
  invoke void @_ZN3mpqC2Ev(ptr noundef nonnull align 8 dereferenceable(32) %m_q_tmp2)
          to label %invoke.cont6 unwind label %lpad

invoke.cont6:                                     ; preds = %invoke.cont5
  ret void

lpad:                                             ; preds = %invoke.cont5, %invoke.cont4, %invoke.cont3, %invoke.cont2, %invoke.cont, %entry
  %0 = landingpad { ptr, i32 }
          cleanup
  %1 = extractvalue { ptr, i32 } %0, 0
  store ptr %1, ptr %exn.slot, align 8
  %2 = extractvalue { ptr, i32 } %0, 1
  store i32 %2, ptr %ehselector.slot, align 4
  call void @_ZN11mpz_managerILb0EED2Ev(ptr noundef nonnull align 8 dereferenceable(600) %this1) #3
  br label %eh.resume

eh.resume:                                        ; preds = %lpad
  %exn = load ptr, ptr %exn.slot, align 8
  %sel = load i32, ptr %ehselector.slot, align 4
  %lpad.val = insertvalue { ptr, i32 } poison, ptr %exn, 0
  %lpad.val7 = insertvalue { ptr, i32 } %lpad.val, i32 %sel, 1
  resume { ptr, i32 } %lpad.val7
}

; Function Attrs: mustprogress uwtable
define hidden void @_ZN11mpf_managerC2Ev(ptr noundef nonnull align 8 dereferenceable(840) %this) unnamed_addr #4 align 2 personality ptr @__gxx_personality_v0 {
entry:
  %this.addr = alloca ptr, align 8
  %exn.slot = alloca ptr, align 8
  %ehselector.slot = alloca i32, align 4
  store ptr %this, ptr %this.addr, align 8
  %this1 = load ptr, ptr %this.addr, align 8
  %m_mpq_manager = getelementptr inbounds %class.mpf_manager, ptr %this1, i32 0, i32 0
  call void @_ZN11mpq_managerILb0EEC2Ev(ptr noundef nonnull align 8 dereferenceable(728) %m_mpq_manager)
  %m_mpz_manager = getelementptr inbounds %class.mpf_manager, ptr %this1, i32 0, i32 1
  %m_mpq_manager2 = getelementptr inbounds %class.mpf_manager, ptr %this1, i32 0, i32 0
  store ptr %m_mpq_manager2, ptr %m_mpz_manager, align 8
  %m_powers2 = getelementptr inbounds %class.mpf_manager, ptr %this1, i32 0, i32 2
  %m_mpz_manager3 = getelementptr inbounds %class.mpf_manager, ptr %this1, i32 0, i32 1
  %0 = load ptr, ptr %m_mpz_manager3, align 8
  invoke void @_ZN11mpf_manager7powers2C2ER11mpz_managerILb0EE(ptr noundef nonnull align 8 dereferenceable(104) %m_powers2, ptr noundef nonnull align 8 dereferenceable(600) %0)
          to label %invoke.cont unwind label %lpad

invoke.cont:                                      ; preds = %entry
  ret void

lpad:                                             ; preds = %entry
  %1 = landingpad { ptr, i32 }
          cleanup
  %2 = extractvalue { ptr, i32 } %1, 0
  store ptr %2, ptr %exn.slot, align 8
  %3 = extractvalue { ptr, i32 } %1, 1
  store i32 %3, ptr %ehselector.slot, align 4
  call void @_ZN11mpq_managerILb0EED1Ev(ptr noundef nonnull align 8 dereferenceable(728) %m_mpq_manager) #3
  br label %eh.resume

eh.resume:                                        ; preds = %lpad
  %exn = load ptr, ptr %exn.slot, align 8
  %sel = load i32, ptr %ehselector.slot, align 4
  %lpad.val = insertvalue { ptr, i32 } poison, ptr %exn, 0
  %lpad.val4 = insertvalue { ptr, i32 } %lpad.val, i32 %sel, 1
  resume { ptr, i32 } %lpad.val4
}