; Function Attrs: mustprogress uwtable
define hidden void @_ZN11mpf_managerC2Ev(ptr noundef nonnull align 8 dereferenceable(840) %this) unnamed_addr #5 align 2 personality ptr @__gxx_personality_v0 {
entry:
  tail call void @_ZN11mpz_managerILb0EEC2Ev(ptr noundef nonnull align 8 dereferenceable(600) %this)
  %m_tmp1.i = getelementptr inbounds i8, ptr %this, i64 600
  store i32 0, ptr %m_tmp1.i, align 8
  %m_kind.i.i = getelementptr inbounds i8, ptr %this, i64 604
  %bf.load.i.i = load i8, ptr %m_kind.i.i, align 4
  %bf.clear3.i.i = and i8 %bf.load.i.i, -4
  store i8 %bf.clear3.i.i, ptr %m_kind.i.i, align 4
  %m_ptr.i.i = getelementptr inbounds i8, ptr %this, i64 608
  store ptr null, ptr %m_ptr.i.i, align 8
  %m_tmp2.i = getelementptr inbounds i8, ptr %this, i64 616
  store i32 0, ptr %m_tmp2.i, align 8
  %m_kind.i1.i = getelementptr inbounds i8, ptr %this, i64 620
  %bf.load.i2.i = load i8, ptr %m_kind.i1.i, align 4
  %bf.clear3.i3.i = and i8 %bf.load.i2.i, -4
  store i8 %bf.clear3.i3.i, ptr %m_kind.i1.i, align 4
  %m_ptr.i4.i = getelementptr inbounds i8, ptr %this, i64 624
  store ptr null, ptr %m_ptr.i4.i, align 8
  %m_tmp3.i = getelementptr inbounds i8, ptr %this, i64 632
  store i32 0, ptr %m_tmp3.i, align 8
  %m_kind.i5.i = getelementptr inbounds i8, ptr %this, i64 636
  %bf.load.i6.i = load i8, ptr %m_kind.i5.i, align 4
  %bf.clear3.i7.i = and i8 %bf.load.i6.i, -4
  store i8 %bf.clear3.i7.i, ptr %m_kind.i5.i, align 4
  %m_ptr.i8.i = getelementptr inbounds i8, ptr %this, i64 640
  store ptr null, ptr %m_ptr.i8.i, align 8
  %m_tmp4.i = getelementptr inbounds i8, ptr %this, i64 648
  store i32 0, ptr %m_tmp4.i, align 8
  %m_kind.i9.i = getelementptr inbounds i8, ptr %this, i64 652
  %bf.load.i10.i = load i8, ptr %m_kind.i9.i, align 4
  %bf.clear3.i11.i = and i8 %bf.load.i10.i, -4
  store i8 %bf.clear3.i11.i, ptr %m_kind.i9.i, align 4
  %m_ptr.i12.i = getelementptr inbounds i8, ptr %this, i64 656
  store ptr null, ptr %m_ptr.i12.i, align 8
  %m_q_tmp1.i = getelementptr inbounds i8, ptr %this, i64 664
  store i32 0, ptr %m_q_tmp1.i, align 8
  %m_kind.i.i.i = getelementptr inbounds i8, ptr %this, i64 668
  %bf.load.i.i.i = load i8, ptr %m_kind.i.i.i, align 4
  %bf.clear3.i.i.i = and i8 %bf.load.i.i.i, -4
  store i8 %bf.clear3.i.i.i, ptr %m_kind.i.i.i, align 4
  %m_ptr.i.i.i = getelementptr inbounds i8, ptr %this, i64 672
  store ptr null, ptr %m_ptr.i.i.i, align 8
  %m_den.i.i = getelementptr inbounds i8, ptr %this, i64 680
  store i32 1, ptr %m_den.i.i, align 8
  %m_kind.i1.i.i = getelementptr inbounds i8, ptr %this, i64 684
  %bf.load.i2.i.i = load i8, ptr %m_kind.i1.i.i, align 4
  %bf.clear3.i3.i.i = and i8 %bf.load.i2.i.i, -4
  store i8 %bf.clear3.i3.i.i, ptr %m_kind.i1.i.i, align 4
  %m_ptr.i4.i.i = getelementptr inbounds i8, ptr %this, i64 688
  store ptr null, ptr %m_ptr.i4.i.i, align 8
  %m_q_tmp2.i = getelementptr inbounds i8, ptr %this, i64 696
  store i32 0, ptr %m_q_tmp2.i, align 8
  %m_kind.i.i13.i = getelementptr inbounds i8, ptr %this, i64 700
  %bf.load.i.i14.i = load i8, ptr %m_kind.i.i13.i, align 4
  %bf.clear3.i.i15.i = and i8 %bf.load.i.i14.i, -4
  store i8 %bf.clear3.i.i15.i, ptr %m_kind.i.i13.i, align 4
  %m_ptr.i.i16.i = getelementptr inbounds i8, ptr %this, i64 704
  store ptr null, ptr %m_ptr.i.i16.i, align 8
  %m_den.i17.i = getelementptr inbounds i8, ptr %this, i64 712
  store i32 1, ptr %m_den.i17.i, align 8
  %m_kind.i1.i18.i = getelementptr inbounds i8, ptr %this, i64 716
  %bf.load.i2.i19.i = load i8, ptr %m_kind.i1.i18.i, align 4
  %bf.clear3.i3.i20.i = and i8 %bf.load.i2.i19.i, -4
  store i8 %bf.clear3.i3.i20.i, ptr %m_kind.i1.i18.i, align 4
  %m_ptr.i4.i21.i = getelementptr inbounds i8, ptr %this, i64 720
  store ptr null, ptr %m_ptr.i4.i21.i, align 8
  %m_mpz_manager = getelementptr inbounds i8, ptr %this, i64 728
  store ptr %this, ptr %m_mpz_manager, align 8
  %m_powers2 = getelementptr inbounds i8, ptr %this, i64 736
  invoke void @_ZN11mpf_manager7powers2C2ER11mpz_managerILb0EE(ptr noundef nonnull align 8 dereferenceable(104) %m_powers2, ptr noundef nonnull align 8 dereferenceable(600) %this)
          to label %invoke.cont unwind label %lpad

invoke.cont:                                      ; preds = %entry
  ret void

lpad:                                             ; preds = %entry
  %0 = landingpad { ptr, i32 }
          cleanup
  tail call void @_ZN11mpq_managerILb0EED1Ev(ptr noundef nonnull align 8 dereferenceable(728) %this) #17
  resume { ptr, i32 } %0
}